; Function Attrs: nounwind uwtable
define dso_local noundef ptr @make_limit(ptr noundef %0, ptr noundef %1, ptr noundef %2, i32 noundef %3, i32 noundef %4, ptr noundef %5, ptr noundef %6, ptr noundef %7) local_unnamed_addr #0 {
  %9 = tail call noundef ptr @palloc0(i64 noundef 152) #12
  store i32 372, ptr %9, align 4
  %10 = getelementptr inbounds nuw i8, ptr %0, i64 48
  %11 = load ptr, ptr %10, align 8
  %12 = getelementptr inbounds nuw i8, ptr %9, i64 48
  store ptr %11, ptr %12, align 8
  %13 = getelementptr inbounds nuw i8, ptr %9, i64 56
  store ptr null, ptr %13, align 8
  %14 = getelementptr inbounds nuw i8, ptr %9, i64 64
  store ptr %0, ptr %14, align 8
  %15 = getelementptr inbounds nuw i8, ptr %9, i64 72
  store ptr null, ptr %15, align 8
  %16 = getelementptr inbounds nuw i8, ptr %9, i64 104
  store ptr %1, ptr %16, align 8
  %17 = getelementptr inbounds nuw i8, ptr %9, i64 112
  store ptr %2, ptr %17, align 8
  %18 = getelementptr inbounds nuw i8, ptr %9, i64 120
  store i32 %3, ptr %18, align 8
  %19 = getelementptr inbounds nuw i8, ptr %9, i64 124
  store i32 %4, ptr %19, align 4
  %20 = getelementptr inbounds nuw i8, ptr %9, i64 128
  store ptr %5, ptr %20, align 8
  %21 = getelementptr inbounds nuw i8, ptr %9, i64 136
  store ptr %6, ptr %21, align 8
  %22 = getelementptr inbounds nuw i8, ptr %9, i64 144
  store ptr %7, ptr %22, align 8
  ret ptr %9
}